target datalayout = "e-m:e-p270:32:32-p271:32:32-p272:64:64-i64:64-i128:128-f80:128-n8:16:32:64-S128"
target triple = "x86_64-pc-linux-gnu"

@.str.78 = private unnamed_addr constant [51 x i8] c"Forwarding and Control Element Separation Protocol\00", align 1
@.str.79 = private unnamed_addr constant [7 x i8] c"ForCES\00", align 1
@.str.80 = private unnamed_addr constant [7 x i8] c"forces\00", align 1
@proto_forces = internal global i32 0, align 4
@.str.81 = private unnamed_addr constant [11 x i8] c"forces.tcp\00", align 1
@forces_handle_tcp = internal global ptr null, align 8
@forces_handle = internal global ptr null, align 8
@.str.82 = private unnamed_addr constant [20 x i8] c"sctp_high_prio_port\00", align 1
@.str.83 = private unnamed_addr constant [32 x i8] c"SCTP High Priority channel port\00", align 1
@.str.84 = private unnamed_addr constant [43 x i8] c"Decode packets on this sctp port as ForCES\00", align 1
@forces_alternate_sctp_high_prio_channel_port = internal global i32 0, align 4
@.str.85 = private unnamed_addr constant [19 x i8] c"sctp_med_prio_port\00", align 1
@.str.86 = private unnamed_addr constant [34 x i8] c"SCTP Medium Priority channel port\00", align 1
@forces_alternate_sctp_med_prio_channel_port = internal global i32 0, align 4
@.str.87 = private unnamed_addr constant [19 x i8] c"sctp_low_prio_port\00", align 1
@.str.88 = private unnamed_addr constant [31 x i8] c"SCTP Low Priority channel port\00", align 1
@forces_alternate_sctp_low_prio_channel_port = internal global i32 0, align 4

; Function Attrs: nounwind uwtable
define hidden void @proto_register_forces() #0 {
  %1 = alloca ptr, align 8
  %2 = alloca ptr, align 8
  %3 = call i32 @proto_register_protocol(ptr noundef @.str.78, ptr noundef @.str.79, ptr noundef @.str.80)
  store i32 %3, ptr @proto_forces, align 4
  %4 = load i32, ptr @proto_forces, align 4
  call void @proto_register_field_array(i32 noundef %4, ptr noundef @proto_register_forces.hf, i32 noundef 39)
  call void @proto_register_subtree_array(ptr noundef @proto_register_forces.ett, i32 noundef 19)
  %5 = load i32, ptr @proto_forces, align 4
  %6 = call ptr @expert_register_protocol(i32 noundef %5)
  store ptr %6, ptr %2, align 8
  %7 = load ptr, ptr %2, align 8
  call void @expert_register_field_array(ptr noundef %7, ptr noundef @proto_register_forces.ei, i32 noundef 6)
  %8 = load i32, ptr @proto_forces, align 4
  %9 = call ptr @register_dissector(ptr noundef @.str.81, ptr noundef @dissect_forces_tcp, i32 noundef %8)
  store ptr %9, ptr @forces_handle_tcp, align 8
  %10 = load i32, ptr @proto_forces, align 4
  %11 = call ptr @register_dissector(ptr noundef @.str.80, ptr noundef @dissect_forces_not_tcp, i32 noundef %10)
  store ptr %11, ptr @forces_handle, align 8
  %12 = load i32, ptr @proto_forces, align 4
  %13 = call ptr @prefs_register_protocol(i32 noundef %12, ptr noundef @proto_reg_handoff_forces)
  store ptr %13, ptr %1, align 8
  %14 = load ptr, ptr %1, align 8
  call void @prefs_register_uint_preference(ptr noundef %14, ptr noundef @.str.82, ptr noundef @.str.83, ptr noundef @.str.84, i32 noundef 10, ptr noundef @forces_alternate_sctp_high_prio_channel_port)
  %15 = load ptr, ptr %1, align 8
  call void @prefs_register_uint_preference(ptr noundef %15, ptr noundef @.str.85, ptr noundef @.str.86, ptr noundef @.str.84, i32 noundef 10, ptr noundef @forces_alternate_sctp_med_prio_channel_port)
  %16 = load ptr, ptr %1, align 8
  call void @prefs_register_uint_preference(ptr noundef %16, ptr noundef @.str.87, ptr noundef @.str.88, ptr noundef @.str.84, i32 noundef 10, ptr noundef @forces_alternate_sctp_low_prio_channel_port)
  ret void
}