; Function Attrs: nounwind uwtable
define hidden void @proto_register_forces() local_unnamed_addr #0 {
  %1 = tail call i32 @proto_register_protocol(ptr noundef nonnull @.str.78, ptr noundef nonnull @.str.79, ptr noundef nonnull @.str.80) #4
  store i32 %1, ptr @proto_forces, align 4
  tail call void @proto_register_field_array(i32 noundef %1, ptr noundef nonnull @proto_register_forces.hf, i32 noundef 39) #4
  tail call void @proto_register_subtree_array(ptr noundef nonnull @proto_register_forces.ett, i32 noundef 19) #4
  %2 = load i32, ptr @proto_forces, align 4
  %3 = tail call ptr @expert_register_protocol(i32 noundef %2) #4
  tail call void @expert_register_field_array(ptr noundef %3, ptr noundef nonnull @proto_register_forces.ei, i32 noundef 6) #4
  %4 = load i32, ptr @proto_forces, align 4
  %5 = tail call ptr @register_dissector(ptr noundef nonnull @.str.81, ptr noundef nonnull @dissect_forces_tcp, i32 noundef %4) #4
  store ptr %5, ptr @forces_handle_tcp, align 8
  %6 = load i32, ptr @proto_forces, align 4
  %7 = tail call ptr @register_dissector(ptr noundef nonnull @.str.80, ptr noundef nonnull @dissect_forces_not_tcp, i32 noundef %6) #4
  store ptr %7, ptr @forces_handle, align 8
  %8 = load i32, ptr @proto_forces, align 4
  %9 = tail call ptr @prefs_register_protocol(i32 noundef %8, ptr noundef nonnull @proto_reg_handoff_forces) #4
  tail call void @prefs_register_uint_preference(ptr noundef %9, ptr noundef nonnull @.str.82, ptr noundef nonnull @.str.83, ptr noundef nonnull @.str.84, i32 noundef 10, ptr noundef nonnull @forces_alternate_sctp_high_prio_channel_port) #4
  tail call void @prefs_register_uint_preference(ptr noundef %9, ptr noundef nonnull @.str.85, ptr noundef nonnull @.str.86, ptr noundef nonnull @.str.84, i32 noundef 10, ptr noundef nonnull @forces_alternate_sctp_med_prio_channel_port) #4
  tail call void @prefs_register_uint_preference(ptr noundef %9, ptr noundef nonnull @.str.87, ptr noundef nonnull @.str.88, ptr noundef nonnull @.str.84, i32 noundef 10, ptr noundef nonnull @forces_alternate_sctp_low_prio_channel_port) #4
  ret void
}